; Function Attrs: nounwind uwtable
define hidden void @zim_XMLReader_next(ptr nocapture noundef readonly %0, ptr nocapture noundef writeonly %1) #0 {
  %3 = alloca i64, align 8
  %4 = alloca ptr, align 8
  store i64 0, ptr %3, align 8
  store ptr null, ptr %4, align 8
  %5 = getelementptr inbounds i8, ptr %0, i64 44
  %6 = load i32, ptr %5, align 4
  %7 = call i32 (i32, ptr, ...) @zend_parse_parameters(i32 noundef %6, ptr noundef nonnull @.str.14, ptr noundef nonnull %4, ptr noundef nonnull %3) #11
  %8 = icmp eq i32 %7, -1
  br i1 %8, label %9, label %12

9:                                                ; preds = %2
  %10 = load ptr, ptr getelementptr inbounds (%struct._zend_executor_globals, ptr @executor_globals, i64 0, i32 50), align 8
  %11 = icmp ne ptr %10, null
  call void @llvm.assume(i1 %11)
  br label %43

12:                                               ; preds = %2
  %13 = getelementptr inbounds i8, ptr %0, i64 32
  %14 = load ptr, ptr %13, align 8
  %15 = getelementptr inbounds i8, ptr %14, i64 -32
  %16 = load ptr, ptr %15, align 8
  %.not = icmp eq ptr %16, null
  br i1 %.not, label %42, label %17

17:                                               ; preds = %12
  %18 = call i32 @xmlTextReaderNext(ptr noundef nonnull %16) #11
  %19 = load ptr, ptr %4, align 8
  %20 = icmp ne ptr %19, null
  %21 = icmp eq i32 %18, 1
  %22 = select i1 %20, i1 %21, i1 false
  br i1 %22, label %.lr.ph, label %._crit_edge

.lr.ph:                                           ; preds = %17, %29
  %23 = load ptr, ptr %15, align 8
  %24 = call ptr @xmlTextReaderConstLocalName(ptr noundef %23) #11
  %25 = load ptr, ptr %4, align 8
  %26 = call i32 @xmlStrEqual(ptr noundef %24, ptr noundef %25) #11
  %.not14 = icmp eq i32 %26, 0
  br i1 %.not14, label %29, label %27

27:                                               ; preds = %.lr.ph
  %28 = getelementptr inbounds i8, ptr %1, i64 8
  store i32 3, ptr %28, align 8
  br label %43

29:                                               ; preds = %.lr.ph
  %30 = load ptr, ptr %15, align 8
  %31 = call i32 @xmlTextReaderNext(ptr noundef %30) #11
  %32 = load ptr, ptr %4, align 8
  %33 = icmp ne ptr %32, null
  %34 = icmp eq i32 %31, 1
  %35 = select i1 %33, i1 %34, i1 false
  br i1 %35, label %.lr.ph, label %._crit_edge

._crit_edge:                                      ; preds = %29, %17
  %.0.lcssa = phi i32 [ %18, %17 ], [ %31, %29 ]
  %36 = icmp eq i32 %.0.lcssa, -1
  br i1 %36, label %37, label %39

37:                                               ; preds = %._crit_edge
  %38 = getelementptr inbounds i8, ptr %1, i64 8
  store i32 2, ptr %38, align 8
  br label %43

39:                                               ; preds = %._crit_edge
  %.not13 = icmp eq i32 %.0.lcssa, 0
  %40 = select i1 %.not13, i32 2, i32 3
  %41 = getelementptr inbounds i8, ptr %1, i64 8
  store i32 %40, ptr %41, align 8
  br label %43

42:                                               ; preds = %12
  call void (ptr, ptr, ...) @zend_throw_error(ptr noundef null, ptr noundef nonnull @.str.13) #11
  br label %43

43:                                               ; preds = %42, %39, %37, %27, %9
  ret void
}